; Function Attrs: mustprogress uwtable
define hidden noundef zeroext i1 @_ZN2cv17QRCodeDecoderImpl6decodeERKNS_3MatERNSt7__cxx1112basic_stringIcSt11char_traitsIcESaIcEEE(ptr noundef nonnull align 8 dereferenceable(72) %0, ptr noundef nonnull align 8 dereferenceable(96) %1, ptr noundef nonnull align 8 dereferenceable(32) %2) unnamed_addr #4 align 2 personality ptr @__gxx_personality_v0 {
  %4 = alloca %"class.cv::Mat", align 8
  %5 = alloca %"class.cv::MatExpr", align 8
  %6 = alloca %"class.cv::_InputArray", align 8
  %7 = alloca %"class.cv::_OutputArray", align 8
  call void @llvm.lifetime.start.p0(i64 96, ptr nonnull %4) #28
  call void @llvm.lifetime.start.p0(i64 352, ptr nonnull %5) #28
  call void @_ZN2cvcoERKNS_3MatE(ptr dead_on_unwind nonnull writable sret(%"class.cv::MatExpr") align 8 %5, ptr noundef nonnull align 8 dereferenceable(96) %1)
  call void @_ZN2cv3MatC1Ev(ptr noundef nonnull align 8 dereferenceable(96) %4) #28
  %8 = load ptr, ptr %5, align 8, !tbaa !123, !noalias !225
  %9 = load ptr, ptr %8, align 8, !tbaa !3
  %10 = getelementptr inbounds nuw i8, ptr %9, i64 24
  %11 = load ptr, ptr %10, align 8
  invoke void %11(ptr noundef nonnull align 8 dereferenceable(8) %8, ptr noundef nonnull align 8 dereferenceable(352) %5, ptr noundef nonnull align 8 dereferenceable(96) %4, i32 noundef -1)
          to label %_ZNK2cv7MatExprcvNS_3MatEEv.exit unwind label %.body

.body:                                            ; preds = %3
  %12 = landingpad { ptr, i32 }
          cleanup
  call void @_ZN2cv3MatD1Ev(ptr noundef nonnull align 8 dereferenceable(96) %4) #28
  call void @_ZN2cv7MatExprD2Ev(ptr noundef nonnull align 8 dereferenceable(352) %5) #28
  call void @llvm.lifetime.end.p0(i64 352, ptr nonnull %5) #28
  br label %32

_ZNK2cv7MatExprcvNS_3MatEEv.exit:                 ; preds = %3
  %13 = getelementptr inbounds nuw i8, ptr %5, i64 208
  call void @_ZN2cv3MatD1Ev(ptr noundef nonnull align 8 dereferenceable(96) %13) #28
  %14 = getelementptr inbounds nuw i8, ptr %5, i64 112
  call void @_ZN2cv3MatD1Ev(ptr noundef nonnull align 8 dereferenceable(96) %14) #28
  %15 = getelementptr inbounds nuw i8, ptr %5, i64 16
  call void @_ZN2cv3MatD1Ev(ptr noundef nonnull align 8 dereferenceable(96) %15) #28
  call void @llvm.lifetime.end.p0(i64 352, ptr nonnull %5) #28
  %16 = invoke noundef zeroext i1 @_ZN2cv17QRCodeDecoderImpl3runERKNS_3MatERNSt7__cxx1112basic_stringIcSt11char_traitsIcESaIcEEE(ptr noundef nonnull align 8 dereferenceable(72) %0, ptr noundef nonnull align 8 dereferenceable(96) %4, ptr noundef nonnull align 8 dereferenceable(32) %2)
          to label %17 unwind label %26

17:                                               ; preds = %_ZNK2cv7MatExprcvNS_3MatEEv.exit
  br i1 %16, label %30, label %18

18:                                               ; preds = %17
  call void @llvm.lifetime.start.p0(i64 24, ptr nonnull %6) #28
  %19 = getelementptr inbounds nuw i8, ptr %6, i64 16
  store i32 0, ptr %19, align 8, !tbaa !84
  %20 = getelementptr inbounds nuw i8, ptr %6, i64 20
  store i32 0, ptr %20, align 4, !tbaa !86
  store i32 16842752, ptr %6, align 8, !tbaa !87
  %21 = getelementptr inbounds nuw i8, ptr %6, i64 8
  store ptr %4, ptr %21, align 8, !tbaa !89
  call void @llvm.lifetime.start.p0(i64 24, ptr nonnull %7) #28
  %22 = getelementptr inbounds nuw i8, ptr %7, i64 8
  %23 = getelementptr inbounds nuw i8, ptr %7, i64 16
  store i64 0, ptr %23, align 8
  store i32 33619968, ptr %7, align 8, !tbaa !87
  store ptr %4, ptr %22, align 8, !tbaa !89
  invoke void @_ZN2cv9transposeERKNS_11_InputArrayERKNS_12_OutputArrayE(ptr noundef nonnull align 8 dereferenceable(24) %6, ptr noundef nonnull align 8 dereferenceable(24) %7)
          to label %24 unwind label %28

24:                                               ; preds = %18
  call void @llvm.lifetime.end.p0(i64 24, ptr nonnull %7) #28
  call void @llvm.lifetime.end.p0(i64 24, ptr nonnull %6) #28
  %25 = invoke noundef zeroext i1 @_ZN2cv17QRCodeDecoderImpl3runERKNS_3MatERNSt7__cxx1112basic_stringIcSt11char_traitsIcESaIcEEE(ptr noundef nonnull align 8 dereferenceable(72) %0, ptr noundef nonnull align 8 dereferenceable(96) %4, ptr noundef nonnull align 8 dereferenceable(32) %2)
          to label %30 unwind label %26

26:                                               ; preds = %24, %_ZNK2cv7MatExprcvNS_3MatEEv.exit
  %27 = landingpad { ptr, i32 }
          cleanup
  br label %31

28:                                               ; preds = %18
  %29 = landingpad { ptr, i32 }
          cleanup
  call void @llvm.lifetime.end.p0(i64 24, ptr nonnull %7) #28
  call void @llvm.lifetime.end.p0(i64 24, ptr nonnull %6) #28
  br label %31

30:                                               ; preds = %24, %17
  %.0.in = phi i1 [ true, %17 ], [ %25, %24 ]
  call void @_ZN2cv3MatD1Ev(ptr noundef nonnull align 8 dereferenceable(96) %4) #28
  call void @llvm.lifetime.end.p0(i64 96, ptr nonnull %4) #28
  ret i1 %.0.in

31:                                               ; preds = %28, %26
  %.pn14 = phi { ptr, i32 } [ %27, %26 ], [ %29, %28 ]
  call void @_ZN2cv3MatD1Ev(ptr noundef nonnull align 8 dereferenceable(96) %4) #28
  br label %32

32:                                               ; preds = %31, %.body
  %.pn14.pn = phi { ptr, i32 } [ %.pn14, %31 ], [ %12, %.body ]
  call void @llvm.lifetime.end.p0(i64 96, ptr nonnull %4) #28
  resume { ptr, i32 } %.pn14.pn
}